target datalayout = "e-m:e-p270:32:32-p271:32:32-p272:64:64-i64:64-i128:128-f80:128-n8:16:32:64-S128"
target triple = "x86_64-pc-linux-gnu"

%"class.std::__cxx11::basic_string" = type { %"struct.std::__cxx11::basic_string<char>::_Alloc_hider", i64, %union.anon }
%"struct.std::__cxx11::basic_string<char>::_Alloc_hider" = type { ptr }
%union.anon = type { i64, [8 x i8] }
%"struct.std::_Rb_tree_key_compare.7" = type { %"struct.std::less.8" }
%"struct.std::less.8" = type { i8 }
%"struct.std::_Rb_tree_header" = type { %"struct.std::_Rb_tree_node_base", i64 }
%"struct.std::_Rb_tree_node_base" = type { i32, ptr, ptr, ptr }
%"class.std::set.26" = type { %"class.std::_Rb_tree.27" }
%"class.std::_Rb_tree.27" = type { %"struct.std::_Rb_tree<std::__cxx11::basic_string<char>, std::__cxx11::basic_string<char>, std::_Identity<std::__cxx11::basic_string<char>>, std::less<std::__cxx11::basic_string<char>>>::_Rb_tree_impl" }
%"struct.std::_Rb_tree<std::__cxx11::basic_string<char>, std::__cxx11::basic_string<char>, std::_Identity<std::__cxx11::basic_string<char>>, std::less<std::__cxx11::basic_string<char>>>::_Rb_tree_impl" = type { %"struct.std::_Rb_tree_key_compare.7", %"struct.std::_Rb_tree_header" }
%"struct.std::__detail::_List_node_header" = type { %"struct.std::__detail::_List_node_base", i64 }
%"struct.std::__detail::_List_node_base" = type { ptr, ptr }
%"class.std::__shared_count" = type { ptr }
%"struct.std::_List_iterator" = type { ptr }
%"class.std::_Function_base" = type { %"union.std::_Any_data", ptr }
%"union.std::_Any_data" = type { %"union.std::_Nocopy_types" }
%"union.std::_Nocopy_types" = type { { i64, i64 } }
%"struct.nix::LegacyArgs" = type { %"class.nix::MixCommonArgs.base", %"class.nix::RootArgs.base", %"class.std::function", %"class.nix::Args" }
%"class.nix::MixCommonArgs.base" = type { ptr, %"class.std::__cxx11::basic_string" }
%"class.nix::RootArgs.base" = type { ptr, %"class.std::__cxx11::basic_string", %"class.std::shared_ptr.145", %"class.std::vector.148", %"class.std::set.153" }
%"class.std::shared_ptr.145" = type { %"class.std::__shared_ptr.146" }
%"class.std::__shared_ptr.146" = type { ptr, %"class.std::__shared_count" }
%"class.std::vector.148" = type { %"struct.std::_Vector_base.149" }
%"struct.std::_Vector_base.149" = type { %"struct.std::_Vector_base<nix::RootArgs::DeferredCompletion, std::allocator<nix::RootArgs::DeferredCompletion>>::_Vector_impl" }
%"struct.std::_Vector_base<nix::RootArgs::DeferredCompletion, std::allocator<nix::RootArgs::DeferredCompletion>>::_Vector_impl" = type { %"struct.std::_Vector_base<nix::RootArgs::DeferredCompletion, std::allocator<nix::RootArgs::DeferredCompletion>>::_Vector_impl_data" }
%"struct.std::_Vector_base<nix::RootArgs::DeferredCompletion, std::allocator<nix::RootArgs::DeferredCompletion>>::_Vector_impl_data" = type { ptr, ptr, ptr }
%"class.std::set.153" = type { %"class.std::_Rb_tree.154" }
%"class.std::_Rb_tree.154" = type { %"struct.std::_Rb_tree<nix::ExperimentalFeature, nix::ExperimentalFeature, std::_Identity<nix::ExperimentalFeature>, std::less<nix::ExperimentalFeature>>::_Rb_tree_impl" }
%"struct.std::_Rb_tree<nix::ExperimentalFeature, nix::ExperimentalFeature, std::_Identity<nix::ExperimentalFeature>, std::less<nix::ExperimentalFeature>>::_Rb_tree_impl" = type { %"struct.std::_Rb_tree_key_compare.158", %"struct.std::_Rb_tree_header" }
%"struct.std::_Rb_tree_key_compare.158" = type { %"struct.std::less.159" }
%"struct.std::less.159" = type { i8 }
%"class.std::function" = type { %"class.std::_Function_base", ptr }
%"class.nix::Args" = type { ptr, %"class.std::map.127", %"class.std::map.132", %"class.std::__cxx11::list.140", %"class.std::__cxx11::list.140", %"class.std::set.26", ptr }
%"class.std::map.127" = type { %"class.std::_Rb_tree.128" }
%"class.std::_Rb_tree.128" = type { %"struct.std::_Rb_tree<std::__cxx11::basic_string<char>, std::pair<const std::__cxx11::basic_string<char>, std::shared_ptr<nix::Args::Flag>>, std::_Select1st<std::pair<const std::__cxx11::basic_string<char>, std::shared_ptr<nix::Args::Flag>>>, std::less<std::__cxx11::basic_string<char>>>::_Rb_tree_impl" }
%"struct.std::_Rb_tree<std::__cxx11::basic_string<char>, std::pair<const std::__cxx11::basic_string<char>, std::shared_ptr<nix::Args::Flag>>, std::_Select1st<std::pair<const std::__cxx11::basic_string<char>, std::shared_ptr<nix::Args::Flag>>>, std::less<std::__cxx11::basic_string<char>>>::_Rb_tree_impl" = type { %"struct.std::_Rb_tree_key_compare.7", %"struct.std::_Rb_tree_header" }
%"class.std::map.132" = type { %"class.std::_Rb_tree.133" }
%"class.std::_Rb_tree.133" = type { %"struct.std::_Rb_tree<char, std::pair<const char, std::shared_ptr<nix::Args::Flag>>, std::_Select1st<std::pair<const char, std::shared_ptr<nix::Args::Flag>>>, std::less<char>>::_Rb_tree_impl" }
%"struct.std::_Rb_tree<char, std::pair<const char, std::shared_ptr<nix::Args::Flag>>, std::_Select1st<std::pair<const char, std::shared_ptr<nix::Args::Flag>>>, std::less<char>>::_Rb_tree_impl" = type { %"struct.std::_Rb_tree_key_compare.137", %"struct.std::_Rb_tree_header" }
%"struct.std::_Rb_tree_key_compare.137" = type { %"struct.std::less.138" }
%"struct.std::less.138" = type { i8 }
%"class.std::__cxx11::list.140" = type { %"class.std::__cxx11::_List_base.141" }
%"class.std::__cxx11::_List_base.141" = type { %"struct.std::__cxx11::_List_base<nix::Args::ExpectedArg, std::allocator<nix::Args::ExpectedArg>>::_List_impl" }
%"struct.std::__cxx11::_List_base<nix::Args::ExpectedArg, std::allocator<nix::Args::ExpectedArg>>::_List_impl" = type { %"struct.std::__detail::_List_node_header" }

; Function Attrs: mustprogress nounwind uwtable
define linkonce_odr noundef zeroext i1 @_ZNKSt14_Function_base8_M_emptyEv(ptr noundef nonnull align 8 dereferenceable(24) %0) #2 comdat align 2 {
  %2 = alloca ptr, align 8
  store ptr %0, ptr %2, align 8
  %3 = load ptr, ptr %2, align 8
  %4 = getelementptr inbounds %"class.std::_Function_base", ptr %3, i32 0, i32 1
  %5 = load ptr, ptr %4, align 8
  %6 = icmp ne ptr %5, null
  %7 = xor i1 %6, true
  ret i1 %7
}

; Function Attrs: mustprogress nounwind uwtable
define linkonce_odr noundef nonnull align 8 dereferenceable(8) ptr @_ZNSt14_List_iteratorINSt7__cxx1112basic_stringIcSt11char_traitsIcESaIcEEEEppEv(ptr noundef nonnull align 8 dereferenceable(8) %0) #2 comdat align 2 {
  %2 = alloca ptr, align 8
  store ptr %0, ptr %2, align 8
  %3 = load ptr, ptr %2, align 8
  %4 = getelementptr inbounds %"struct.std::_List_iterator", ptr %3, i32 0, i32 0
  %5 = load ptr, ptr %4, align 8
  %6 = getelementptr inbounds %"struct.std::__detail::_List_node_base", ptr %5, i32 0, i32 0
  %7 = load ptr, ptr %6, align 8
  %8 = getelementptr inbounds %"struct.std::_List_iterator", ptr %3, i32 0, i32 0
  store ptr %7, ptr %8, align 8
  ret ptr %3
}

; Function Attrs: mustprogress uwtable
define linkonce_odr noundef zeroext i1 @_ZNKSt8functionIFbRSt14_List_iteratorINSt7__cxx1112basic_stringIcSt11char_traitsIcESaIcEEEERKS7_EEclES8_SA_(ptr noundef nonnull align 8 dereferenceable(32) %0, ptr noundef nonnull align 8 dereferenceable(8) %1, ptr noundef nonnull align 8 dereferenceable(8) %2) #5 comdat align 2 {
  %4 = alloca ptr, align 8
  %5 = alloca ptr, align 8
  %6 = alloca ptr, align 8
  store ptr %0, ptr %4, align 8
  store ptr %1, ptr %5, align 8
  store ptr %2, ptr %6, align 8
  %7 = load ptr, ptr %4, align 8
  %8 = call noundef zeroext i1 @_ZNKSt14_Function_base8_M_emptyEv(ptr noundef nonnull align 8 dereferenceable(24) %7)
  br i1 %8, label %9, label %10

9:                                                ; preds = %3
  call void @_ZSt25__throw_bad_function_callv() #19
  unreachable

10:                                               ; preds = %3
  %11 = getelementptr inbounds %"class.std::function", ptr %7, i32 0, i32 1
  %12 = load ptr, ptr %11, align 8
  %13 = getelementptr inbounds %"class.std::_Function_base", ptr %7, i32 0, i32 0
  %14 = load ptr, ptr %5, align 8
  %15 = load ptr, ptr %6, align 8
  %16 = call noundef zeroext i1 %12(ptr noundef nonnull align 8 dereferenceable(16) %13, ptr noundef nonnull align 8 dereferenceable(8) %14, ptr noundef nonnull align 8 dereferenceable(8) %15)
  ret i1 %16
}

; Function Attrs: mustprogress uwtable
define noundef zeroext i1 @_ZN3nix10LegacyArgs11processFlagERSt14_List_iteratorINSt7__cxx1112basic_stringIcSt11char_traitsIcESaIcEEEES8_(ptr noundef nonnull align 8 dereferenceable(200) %0, ptr noundef nonnull align 8 dereferenceable(8) %1, ptr %2) unnamed_addr #5 align 2 {
  %4 = alloca i1, align 1
  %5 = alloca %"struct.std::_List_iterator", align 8
  %6 = alloca ptr, align 8
  %7 = alloca ptr, align 8
  %8 = alloca %"struct.std::_List_iterator", align 8
  %9 = alloca i8, align 1
  %10 = getelementptr inbounds %"struct.std::_List_iterator", ptr %5, i32 0, i32 0
  store ptr %2, ptr %10, align 8
  store ptr %0, ptr %6, align 8
  store ptr %1, ptr %7, align 8
  %11 = load ptr, ptr %6, align 8
  %12 = load ptr, ptr %11, align 8
  %13 = getelementptr i8, ptr %12, i64 -24
  %14 = load i64, ptr %13, align 8
  %15 = getelementptr inbounds i8, ptr %11, i64 %14
  %16 = load ptr, ptr %7, align 8
  call void @llvm.memcpy.p0.p0.i64(ptr align 8 %8, ptr align 8 %5, i64 8, i1 false)
  %17 = getelementptr inbounds %"struct.std::_List_iterator", ptr %8, i32 0, i32 0
  %18 = load ptr, ptr %17, align 8
  %19 = call noundef zeroext i1 @_ZN3nix4Args11processFlagERSt14_List_iteratorINSt7__cxx1112basic_stringIcSt11char_traitsIcESaIcEEEES8_(ptr noundef nonnull align 8 dereferenceable(208) %15, ptr noundef nonnull align 8 dereferenceable(8) %16, ptr %18)
  br i1 %19, label %20, label %21

20:                                               ; preds = %3
  store i1 true, ptr %4, align 1
  br label %34

21:                                               ; preds = %3
  %22 = getelementptr inbounds %"struct.nix::LegacyArgs", ptr %11, i32 0, i32 2
  %23 = load ptr, ptr %7, align 8
  %24 = call noundef zeroext i1 @_ZNKSt8functionIFbRSt14_List_iteratorINSt7__cxx1112basic_stringIcSt11char_traitsIcESaIcEEEERKS7_EEclES8_SA_(ptr noundef nonnull align 8 dereferenceable(32) %22, ptr noundef nonnull align 8 dereferenceable(8) %23, ptr noundef nonnull align 8 dereferenceable(8) %5)
  %25 = zext i1 %24 to i8
  store i8 %25, ptr %9, align 1
  %26 = load i8, ptr %9, align 1
  %27 = trunc i8 %26 to i1
  br i1 %27, label %28, label %31

28:                                               ; preds = %21
  %29 = load ptr, ptr %7, align 8
  %30 = call noundef nonnull align 8 dereferenceable(8) ptr @_ZNSt14_List_iteratorINSt7__cxx1112basic_stringIcSt11char_traitsIcESaIcEEEEppEv(ptr noundef nonnull align 8 dereferenceable(8) %29) #1
  br label %31

31:                                               ; preds = %28, %21
  %32 = load i8, ptr %9, align 1
  %33 = trunc i8 %32 to i1
  store i1 %33, ptr %4, align 1
  br label %34

34:                                               ; preds = %31, %20
  %35 = load i1, ptr %4, align 1
  ret i1 %35
}

; Function Attrs: uwtable
define noundef zeroext i1 @_ZTv0_n56_N3nix10LegacyArgs11processFlagERSt14_List_iteratorINSt7__cxx1112basic_stringIcSt11char_traitsIcESaIcEEEES8_(ptr noundef %0, ptr noundef nonnull align 8 dereferenceable(8) %1, ptr %2) unnamed_addr #0 align 2 {
  %4 = alloca %"struct.std::_List_iterator", align 8
  %5 = alloca ptr, align 8
  %6 = alloca ptr, align 8
  %7 = getelementptr inbounds %"struct.std::_List_iterator", ptr %4, i32 0, i32 0
  store ptr %2, ptr %7, align 8
  store ptr %0, ptr %5, align 8
  store ptr %1, ptr %6, align 8
  %8 = load ptr, ptr %5, align 8
  %9 = load ptr, ptr %8, align 8
  %10 = getelementptr inbounds i8, ptr %9, i64 -56
  %11 = load i64, ptr %10, align 8
  %12 = getelementptr inbounds i8, ptr %8, i64 %11
  %13 = load ptr, ptr %6, align 8
  %14 = getelementptr inbounds %"struct.std::_List_iterator", ptr %4, i32 0, i32 0
  %15 = load ptr, ptr %14, align 8
  %16 = tail call noundef zeroext i1 @_ZN3nix10LegacyArgs11processFlagERSt14_List_iteratorINSt7__cxx1112basic_stringIcSt11char_traitsIcESaIcEEEES8_(ptr noundef nonnull align 8 dereferenceable(200) %12, ptr noundef nonnull align 8 dereferenceable(8) %13, ptr %15)
  ret i1 %16
}