; Function Attrs: uwtable
define noundef zeroext i1 @_ZTv0_n56_N3nix10LegacyArgs11processFlagERSt14_List_iteratorINSt7__cxx1112basic_stringIcSt11char_traitsIcESaIcEEEES8_(ptr noundef %0, ptr noundef nonnull align 8 dereferenceable(8) %1, ptr %2) unnamed_addr #4 align 2 {
  %4 = alloca %"struct.std::_List_iterator", align 8
  %5 = load ptr, ptr %0, align 8
  %6 = getelementptr inbounds i8, ptr %5, i64 -56
  %7 = load i64, ptr %6, align 8
  %8 = getelementptr inbounds i8, ptr %0, i64 %7
  call void @llvm.lifetime.start.p0(i64 8, ptr nonnull %4)
  store ptr %2, ptr %4, align 8
  %9 = load ptr, ptr %8, align 8
  %10 = getelementptr i8, ptr %9, i64 -24
  %11 = load i64, ptr %10, align 8
  %12 = getelementptr inbounds i8, ptr %8, i64 %11
  %13 = tail call noundef zeroext i1 @_ZN3nix4Args11processFlagERSt14_List_iteratorINSt7__cxx1112basic_stringIcSt11char_traitsIcESaIcEEEES8_(ptr noundef nonnull align 8 dereferenceable(208) %12, ptr noundef nonnull align 8 dereferenceable(8) %1, ptr %2)
  br i1 %13, label %_ZN3nix10LegacyArgs11processFlagERSt14_List_iteratorINSt7__cxx1112basic_stringIcSt11char_traitsIcESaIcEEEES8_.exit, label %14

14:                                               ; preds = %3
  %15 = getelementptr inbounds i8, ptr %8, i64 184
  %16 = load ptr, ptr %15, align 8
  %.not.i.i.i = icmp eq ptr %16, null
  br i1 %.not.i.i.i, label %17, label %_ZNKSt8functionIFbRSt14_List_iteratorINSt7__cxx1112basic_stringIcSt11char_traitsIcESaIcEEEERKS7_EEclES8_SA_.exit.i

17:                                               ; preds = %14
  tail call void @_ZSt25__throw_bad_function_callv() #31
  unreachable

_ZNKSt8functionIFbRSt14_List_iteratorINSt7__cxx1112basic_stringIcSt11char_traitsIcESaIcEEEERKS7_EEclES8_SA_.exit.i: ; preds = %14
  %18 = getelementptr inbounds i8, ptr %8, i64 168
  %19 = getelementptr inbounds i8, ptr %8, i64 192
  %20 = load ptr, ptr %19, align 8
  %21 = call noundef zeroext i1 %20(ptr noundef nonnull align 8 dereferenceable(16) %18, ptr noundef nonnull align 8 dereferenceable(8) %1, ptr noundef nonnull align 8 dereferenceable(8) %4)
  br i1 %21, label %22, label %_ZN3nix10LegacyArgs11processFlagERSt14_List_iteratorINSt7__cxx1112basic_stringIcSt11char_traitsIcESaIcEEEES8_.exit

22:                                               ; preds = %_ZNKSt8functionIFbRSt14_List_iteratorINSt7__cxx1112basic_stringIcSt11char_traitsIcESaIcEEEERKS7_EEclES8_SA_.exit.i
  %23 = load ptr, ptr %1, align 8
  %24 = load ptr, ptr %23, align 8
  store ptr %24, ptr %1, align 8
  br label %_ZN3nix10LegacyArgs11processFlagERSt14_List_iteratorINSt7__cxx1112basic_stringIcSt11char_traitsIcESaIcEEEES8_.exit

_ZN3nix10LegacyArgs11processFlagERSt14_List_iteratorINSt7__cxx1112basic_stringIcSt11char_traitsIcESaIcEEEES8_.exit: ; preds = %3, %_ZNKSt8functionIFbRSt14_List_iteratorINSt7__cxx1112basic_stringIcSt11char_traitsIcESaIcEEEERKS7_EEclES8_SA_.exit.i, %22
  %.0.i = phi i1 [ true, %3 ], [ true, %22 ], [ false, %_ZNKSt8functionIFbRSt14_List_iteratorINSt7__cxx1112basic_stringIcSt11char_traitsIcESaIcEEEERKS7_EEclES8_SA_.exit.i ]
  call void @llvm.lifetime.end.p0(i64 8, ptr nonnull %4)
  ret i1 %.0.i
}